target datalayout = "e-m:e-p270:32:32-p271:32:32-p272:64:64-i64:64-f80:128-n8:16:32:64-S128"
target triple = "x86_64-pc-linux-gnu"

%struct.student = type { [30 x i8], i32, i32, i8, i8, i32, i64, %struct.student* }

@n = common dso_local global i32 0, align 4
@.str = private unnamed_addr constant [19 x i8] c"%s %d %d %c %c %ld\00", align 1
@.str.1 = private unnamed_addr constant [3 x i8] c"%d\00", align 1
@.str.2 = private unnamed_addr constant [10 x i8] c"%s\0A%d\0A%d\0A\00", align 1

; Function Attrs: noinline nounwind uwtable
define dso_local %struct.student* @creat(i32 %0) #0 {
  %2 = alloca i32, align 4
  %3 = alloca %struct.student*, align 8
  %4 = alloca %struct.student*, align 8
  %5 = alloca %struct.student*, align 8
  store i32 %0, i32* %2, align 4
  store i32 0, i32* @n, align 4
  %6 = call noalias i8* @malloc(i64 100) #3
  %7 = bitcast i8* %6 to %struct.student*
  store %struct.student* %7, %struct.student** %5, align 8
  store %struct.student* %7, %struct.student** %4, align 8
  %8 = load %struct.student*, %struct.student** %4, align 8
  %9 = getelementptr inbounds %struct.student, %struct.student* %8, i32 0, i32 0
  %10 = getelementptr inbounds [30 x i8], [30 x i8]* %9, i64 0, i64 0
  %11 = load %struct.student*, %struct.student** %4, align 8
  %12 = getelementptr inbounds %struct.student, %struct.student* %11, i32 0, i32 1
  %13 = load %struct.student*, %struct.student** %4, align 8
  %14 = getelementptr inbounds %struct.student, %struct.student* %13, i32 0, i32 2
  %15 = load %struct.student*, %struct.student** %4, align 8
  %16 = getelementptr inbounds %struct.student, %struct.student* %15, i32 0, i32 3
  %17 = load %struct.student*, %struct.student** %4, align 8
  %18 = getelementptr inbounds %struct.student, %struct.student* %17, i32 0, i32 4
  %19 = load %struct.student*, %struct.student** %4, align 8
  %20 = getelementptr inbounds %struct.student, %struct.student* %19, i32 0, i32 5
  %21 = call i32 (i8*, ...) @__isoc99_scanf(i8* getelementptr inbounds ([19 x i8], [19 x i8]* @.str, i64 0, i64 0), i8* %10, i32* %12, i32* %14, i8* %16, i8* %18, i32* %20)
  %22 = load %struct.student*, %struct.student** %4, align 8
  %23 = getelementptr inbounds %struct.student, %struct.student* %22, i32 0, i32 6
  store i64 0, i64* %23, align 8
  store %struct.student* null, %struct.student** %3, align 8
  br label %24

24:                                               ; preds = %39, %1
  %25 = load i32, i32* %2, align 4
  %26 = add nsw i32 %25, -1
  store i32 %26, i32* %2, align 4
  %27 = icmp ne i32 %25, 0
  br i1 %27, label %28, label %59

28:                                               ; preds = %24
  %29 = load i32, i32* @n, align 4
  %30 = add nsw i32 %29, 1
  store i32 %30, i32* @n, align 4
  %31 = load i32, i32* @n, align 4
  %32 = icmp eq i32 %31, 1
  br i1 %32, label %33, label %35

33:                                               ; preds = %28
  %34 = load %struct.student*, %struct.student** %4, align 8
  store %struct.student* %34, %struct.student** %3, align 8
  br label %39

35:                                               ; preds = %28
  %36 = load %struct.student*, %struct.student** %4, align 8
  %37 = load %struct.student*, %struct.student** %5, align 8
  %38 = getelementptr inbounds %struct.student, %struct.student* %37, i32 0, i32 7
  store %struct.student* %36, %struct.student** %38, align 8
  br label %39

39:                                               ; preds = %35, %33
  %40 = load %struct.student*, %struct.student** %4, align 8
  store %struct.student* %40, %struct.student** %5, align 8
  %41 = call noalias i8* @malloc(i64 100) #3
  %42 = bitcast i8* %41 to %struct.student*
  store %struct.student* %42, %struct.student** %4, align 8
  %43 = load %struct.student*, %struct.student** %4, align 8
  %44 = getelementptr inbounds %struct.student, %struct.student* %43, i32 0, i32 0
  %45 = getelementptr inbounds [30 x i8], [30 x i8]* %44, i64 0, i64 0
  %46 = load %struct.student*, %struct.student** %4, align 8
  %47 = getelementptr inbounds %struct.student, %struct.student* %46, i32 0, i32 1
  %48 = load %struct.student*, %struct.student** %4, align 8
  %49 = getelementptr inbounds %struct.student, %struct.student* %48, i32 0, i32 2
  %50 = load %struct.student*, %struct.student** %4, align 8
  %51 = getelementptr inbounds %struct.student, %struct.student* %50, i32 0, i32 3
  %52 = load %struct.student*, %struct.student** %4, align 8
  %53 = getelementptr inbounds %struct.student, %struct.student* %52, i32 0, i32 4
  %54 = load %struct.student*, %struct.student** %4, align 8
  %55 = getelementptr inbounds %struct.student, %struct.student* %54, i32 0, i32 5
  %56 = call i32 (i8*, ...) @__isoc99_scanf(i8* getelementptr inbounds ([19 x i8], [19 x i8]* @.str, i64 0, i64 0), i8* %45, i32* %47, i32* %49, i8* %51, i8* %53, i32* %55)
  %57 = load %struct.student*, %struct.student** %4, align 8
  %58 = getelementptr inbounds %struct.student, %struct.student* %57, i32 0, i32 6
  store i64 0, i64* %58, align 8
  br label %24

59:                                               ; preds = %24
  %60 = load %struct.student*, %struct.student** %5, align 8
  %61 = getelementptr inbounds %struct.student, %struct.student* %60, i32 0, i32 7
  store %struct.student* null, %struct.student** %61, align 8
  %62 = load %struct.student*, %struct.student** %3, align 8
  ret %struct.student* %62
}

; Function Attrs: noinline nounwind uwtable
define dso_local void @main() #0 {
  %1 = alloca %struct.student*, align 8
  %2 = alloca %struct.student*, align 8
  %3 = alloca %struct.student*, align 8
  %4 = alloca i32, align 4
  %5 = alloca i32, align 4
  %6 = alloca i32, align 4
  store i32 0, i32* %5, align 4
  store i32 0, i32* %6, align 4
  %7 = call i32 (i8*, ...) @__isoc99_scanf(i8* getelementptr inbounds ([3 x i8], [3 x i8]* @.str.1, i64 0, i64 0), i32* %4)
  %8 = load i32, i32* %4, align 4
  %9 = call %struct.student* @creat(i32 %8)
  store %struct.student* %9, %struct.student** %1, align 8
  %10 = load %struct.student*, %struct.student** %1, align 8
  store %struct.student* %10, %struct.student** %3, align 8
  store %struct.student* %10, %struct.student** %2, align 8
  br label %11

11:                                               ; preds = %86, %0
  %12 = load %struct.student*, %struct.student** %2, align 8
  %13 = icmp ne %struct.student* %12, null
  br i1 %13, label %14, label %90

14:                                               ; preds = %11
  %15 = load %struct.student*, %struct.student** %2, align 8
  %16 = getelementptr inbounds %struct.student, %struct.student* %15, i32 0, i32 1
  %17 = load i32, i32* %16, align 8
  %18 = icmp sgt i32 %17, 80
  br i1 %18, label %19, label %29

19:                                               ; preds = %14
  %20 = load %struct.student*, %struct.student** %2, align 8
  %21 = getelementptr inbounds %struct.student, %struct.student* %20, i32 0, i32 5
  %22 = load i32, i32* %21, align 4
  %23 = icmp sgt i32 %22, 0
  br i1 %23, label %24, label %29

24:                                               ; preds = %19
  %25 = load %struct.student*, %struct.student** %2, align 8
  %26 = getelementptr inbounds %struct.student, %struct.student* %25, i32 0, i32 6
  %27 = load i64, i64* %26, align 8
  %28 = add nsw i64 %27, 8000
  store i64 %28, i64* %26, align 8
  br label %29

29:                                               ; preds = %24, %19, %14
  %30 = load %struct.student*, %struct.student** %2, align 8
  %31 = getelementptr inbounds %struct.student, %struct.student* %30, i32 0, i32 1
  %32 = load i32, i32* %31, align 8
  %33 = icmp sgt i32 %32, 85
  br i1 %33, label %34, label %44

34:                                               ; preds = %29
  %35 = load %struct.student*, %struct.student** %2, align 8
  %36 = getelementptr inbounds %struct.student, %struct.student* %35, i32 0, i32 2
  %37 = load i32, i32* %36, align 4
  %38 = icmp sgt i32 %37, 80
  br i1 %38, label %39, label %44

39:                                               ; preds = %34
  %40 = load %struct.student*, %struct.student** %2, align 8
  %41 = getelementptr inbounds %struct.student, %struct.student* %40, i32 0, i32 6
  %42 = load i64, i64* %41, align 8
  %43 = add nsw i64 %42, 4000
  store i64 %43, i64* %41, align 8
  br label %44

44:                                               ; preds = %39, %34, %29
  %45 = load %struct.student*, %struct.student** %2, align 8
  %46 = getelementptr inbounds %struct.student, %struct.student* %45, i32 0, i32 1
  %47 = load i32, i32* %46, align 8
  %48 = icmp sgt i32 %47, 90
  br i1 %48, label %49, label %54

49:                                               ; preds = %44
  %50 = load %struct.student*, %struct.student** %2, align 8
  %51 = getelementptr inbounds %struct.student, %struct.student* %50, i32 0, i32 6
  %52 = load i64, i64* %51, align 8
  %53 = add nsw i64 %52, 2000
  store i64 %53, i64* %51, align 8
  br label %54

54:                                               ; preds = %49, %44
  %55 = load %struct.student*, %struct.student** %2, align 8
  %56 = getelementptr inbounds %struct.student, %struct.student* %55, i32 0, i32 1
  %57 = load i32, i32* %56, align 8
  %58 = icmp sgt i32 %57, 85
  br i1 %58, label %59, label %70

59:                                               ; preds = %54
  %60 = load %struct.student*, %struct.student** %2, align 8
  %61 = getelementptr inbounds %struct.student, %struct.student* %60, i32 0, i32 4
  %62 = load i8, i8* %61, align 1
  %63 = sext i8 %62 to i32
  %64 = icmp eq i32 %63, 89
  br i1 %64, label %65, label %70

65:                                               ; preds = %59
  %66 = load %struct.student*, %struct.student** %2, align 8
  %67 = getelementptr inbounds %struct.student, %struct.student* %66, i32 0, i32 6
  %68 = load i64, i64* %67, align 8
  %69 = add nsw i64 %68, 1000
  store i64 %69, i64* %67, align 8
  br label %70

70:                                               ; preds = %65, %59, %54
  %71 = load %struct.student*, %struct.student** %2, align 8
  %72 = getelementptr inbounds %struct.student, %struct.student* %71, i32 0, i32 2
  %73 = load i32, i32* %72, align 4
  %74 = icmp sgt i32 %73, 80
  br i1 %74, label %75, label %86

75:                                               ; preds = %70
  %76 = load %struct.student*, %struct.student** %2, align 8
  %77 = getelementptr inbounds %struct.student, %struct.student* %76, i32 0, i32 3
  %78 = load i8, i8* %77, align 8
  %79 = sext i8 %78 to i32
  %80 = icmp eq i32 %79, 89
  br i1 %80, label %81, label %86

81:                                               ; preds = %75
  %82 = load %struct.student*, %struct.student** %2, align 8
  %83 = getelementptr inbounds %struct.student, %struct.student* %82, i32 0, i32 6
  %84 = load i64, i64* %83, align 8
  %85 = add nsw i64 %84, 850
  store i64 %85, i64* %83, align 8
  br label %86

86:                                               ; preds = %81, %75, %70
  %87 = load %struct.student*, %struct.student** %2, align 8
  %88 = getelementptr inbounds %struct.student, %struct.student* %87, i32 0, i32 7
  %89 = load %struct.student*, %struct.student** %88, align 8
  store %struct.student* %89, %struct.student** %2, align 8
  br label %11

90:                                               ; preds = %11
  %91 = load %struct.student*, %struct.student** %1, align 8
  store %struct.student* %91, %struct.student** %2, align 8
  br label %92

92:                                               ; preds = %115, %90
  %93 = load %struct.student*, %struct.student** %2, align 8
  %94 = icmp ne %struct.student* %93, null
  br i1 %94, label %95, label %119

95:                                               ; preds = %92
  %96 = load %struct.student*, %struct.student** %2, align 8
  %97 = getelementptr inbounds %struct.student, %struct.student* %96, i32 0, i32 6
  %98 = load i64, i64* %97, align 8
  %99 = load i32, i32* %6, align 4
  %100 = sext i32 %99 to i64
  %101 = add nsw i64 %100, %98
  %102 = trunc i64 %101 to i32
  store i32 %102, i32* %6, align 4
  %103 = load %struct.student*, %struct.student** %2, align 8
  %104 = getelementptr inbounds %struct.student, %struct.student* %103, i32 0, i32 6
  %105 = load i64, i64* %104, align 8
  %106 = load i32, i32* %5, align 4
  %107 = sext i32 %106 to i64
  %108 = icmp sgt i64 %105, %107
  br i1 %108, label %109, label %115

109:                                              ; preds = %95
  %110 = load %struct.student*, %struct.student** %2, align 8
  %111 = getelementptr inbounds %struct.student, %struct.student* %110, i32 0, i32 6
  %112 = load i64, i64* %111, align 8
  %113 = trunc i64 %112 to i32
  store i32 %113, i32* %5, align 4
  %114 = load %struct.student*, %struct.student** %2, align 8
  store %struct.student* %114, %struct.student** %3, align 8
  br label %115

115:                                              ; preds = %109, %95
  %116 = load %struct.student*, %struct.student** %2, align 8
  %117 = getelementptr inbounds %struct.student, %struct.student* %116, i32 0, i32 7
  %118 = load %struct.student*, %struct.student** %117, align 8
  store %struct.student* %118, %struct.student** %2, align 8
  br label %92

119:                                              ; preds = %92
  %120 = load %struct.student*, %struct.student** %3, align 8
  %121 = getelementptr inbounds %struct.student, %struct.student* %120, i32 0, i32 0
  %122 = getelementptr inbounds [30 x i8], [30 x i8]* %121, i64 0, i64 0
  %123 = load %struct.student*, %struct.student** %3, align 8
  %124 = getelementptr inbounds %struct.student, %struct.student* %123, i32 0, i32 6
  %125 = load i64, i64* %124, align 8
  %126 = load i32, i32* %6, align 4
  %127 = call i32 (i8*, ...) @printf(i8* getelementptr inbounds ([10 x i8], [10 x i8]* @.str.2, i64 0, i64 0), i8* %122, i64 %125, i32 %126)
  ret void
}